; Function Attrs: mustprogress nofree norecurse nosync nounwind willreturn memory(argmem: write) uwtable
define void @_ZN6icu_776number9Precision14minMaxFractionEii(ptr dead_on_unwind noalias writable writeonly sret(%"class.icu_77::number::FractionPrecision") align 8 captures(none) initializes((0, 4), (8, 12), (24, 28)) %0, i32 noundef %1, i32 noundef %2) local_unnamed_addr #11 align 2 {
  %4 = icmp slt i32 %1, 0
  %5 = icmp sgt i32 %2, 999
  %or.cond.not11 = or i1 %4, %5
  %.not = icmp sgt i32 %1, %2
  %or.cond8 = or i1 %.not, %or.cond.not11
  br i1 %or.cond8, label %10, label %6

6:                                                ; preds = %3
  %7 = trunc i32 %1 to i16
  %8 = trunc i32 %2 to i16
  %9 = getelementptr inbounds nuw i8, ptr %0, i64 8
  store i16 %7, ptr %9, align 8, !alias.scope !44
  %.sroa.5.0..sroa_idx2.i = getelementptr inbounds nuw i8, ptr %0, i64 10
  store i16 %8, ptr %.sroa.5.0..sroa_idx2.i, align 2, !alias.scope !44
  %.sroa.6.0..sroa_idx3.i = getelementptr inbounds nuw i8, ptr %0, i64 12
  store i16 -1, ptr %.sroa.6.0..sroa_idx3.i, align 4, !alias.scope !44
  %.sroa.7.0..sroa_idx4.i = getelementptr inbounds nuw i8, ptr %0, i64 14
  store i16 -1, ptr %.sroa.7.0..sroa_idx4.i, align 2, !alias.scope !44
  %.sroa.85.0..sroa_idx.i = getelementptr inbounds nuw i8, ptr %0, i64 16
  store i64 0, ptr %.sroa.85.0..sroa_idx.i, align 8, !tbaa !17, !alias.scope !44
  br label %12

10:                                               ; preds = %3
  %11 = getelementptr inbounds nuw i8, ptr %0, i64 8
  store i32 65810, ptr %11, align 8, !tbaa !17
  br label %12

12:                                               ; preds = %10, %6
  %.sink = phi i32 [ 9, %10 ], [ 2, %6 ]
  store i32 %.sink, ptr %0, align 8, !tbaa !27
  %13 = getelementptr inbounds nuw i8, ptr %0, i64 24
  store i32 0, ptr %13, align 8, !tbaa !31
  ret void
}